; Function Attrs: nounwind uwtable
define internal fastcc range(i32 -1, 2) i32 @ctrladd(ptr noundef %0, ptr noundef %1) unnamed_addr #1 {
  %3 = tail call noalias ptr @CRYPTO_strdup(ptr noundef %1, ptr noundef nonnull @.str.29, i32 noundef 202) #10
  %4 = icmp eq ptr %3, null
  br i1 %4, label %9, label %5

5:                                                ; preds = %2
  %6 = tail call i32 @OPENSSL_sk_push(ptr noundef %0, ptr noundef nonnull %3) #10
  %7 = icmp slt i32 %6, 1
  br i1 %7, label %8, label %9

8:                                                ; preds = %5
  tail call void @CRYPTO_free(ptr noundef nonnull %3, ptr noundef nonnull @.str.29, i32 noundef 208) #10
  br label %9

9:                                                ; preds = %5, %2, %8
  %.0 = phi i32 [ -1, %8 ], [ -1, %2 ], [ 1, %5 ]
  ret i32 %.0
}